Certificate:
    Data:
        Version: 3 (0x2)
        Serial Number: 162 (0xa2)
        Signature Algorithm: sha1WithRSAEncryption
        Issuer: C=CN, ST=GD, L=HY, O=Xamarin, OU=Tech., CN=Xamware/emailAddress=jeango@gmail.com
        Validity
            Not Before: Jun  5 13:08:34 2020 GMT
            Not After : Jun  5 13:08:34 2021 GMT
        Subject: C=CN, ST=GD, O=Xamarin, OU=Tech., CN=localhost/emailAddress=jeango@xamware.com
        Subject Public Key Info:
            Public Key Algorithm: rsaEncryption
            RSA Public Key: (2048 bit)
                Modulus (2048 bit):
                    00:f3:1f:e7:74:64:e3:f4:2d:35:af:13:15:0c:f2:
                    5c:8c:55:c8:ff:27:60:d0:13:bb:1f:4a:be:11:c6:
                    e5:93:9b:59:71:ce:95:80:6a:bd:ff:2a:7e:df:54:
                    3d:5d:73:42:20:9b:99:47:b3:66:67:ff:5d:78:88:
                    50:c5:b9:23:fb:fd:0f:72:0e:ce:43:71:9c:e3:87:
                    5f:14:c0:fa:e1:0f:48:a2:a1:d4:d8:fa:88:3e:30:
                    fc:2b:ea:a4:b9:68:60:f2:44:00:72:9d:fe:ff:38:
                    a6:bd:59:4f:15:3e:88:fc:2d:82:55:8c:b9:01:6e:
                    c3:0a:83:74:0f:7c:4c:cd:9c:5a:87:91:57:c9:08:
                    c1:5d:f3:c3:00:33:13:ef:3c:4f:ef:3d:ab:76:f5:
                    94:1f:f4:40:b2:75:0e:a0:fb:28:32:6b:09:ba:82:
                    82:11:58:67:d8:d3:7d:81:65:eb:a5:42:b4:80:5e:
                    39:c4:be:c1:5c:59:b8:8f:8a:6d:fc:95:5f:f4:4c:
                    28:ae:ac:91:65:db:48:86:17:2b:46:8b:98:7b:69:
                    c5:e5:71:06:51:01:2c:3b:c4:02:f0:a3:8d:de:3b:
                    e5:49:dd:75:70:d8:5d:f9:65:da:2e:fa:d3:f0:a5:
                    c5:e0:19:96:d9:f0:f5:5f:6c:19:ca:73:55:62:20:
                    58:b3
                Exponent: 65537 (0x10001)
        X509v3 extensions:
            X509v3 Basic Constraints: 
                CA:FALSE
            X509v3 Key Usage: 
                Digital Signature, Non Repudiation, Key Encipherment
            X509v3 Extended Key Usage: 
                TLS Web Server Authentication, TLS Web Client Authentication
            X509v3 Subject Alternative Name: 
                DNS:localhost, DNS:192.168.0.112, DNS:192.168.43.203
    Signature Algorithm: sha1WithRSAEncryption
        ac:0b:a7:bd:71:dd:63:72:17:68:8e:fb:0e:d3:bc:5d:49:74:
        b6:7f:ca:fb:6e:ae:2d:dc:44:62:75:99:11:87:ba:c2:20:7b:
        2c:5d:b1:a4:ef:35:7e:dd:19:63:91:75:03:f8:12:23:dc:d3:
        a0:b0:20:30:c1:54:c7:fd:06:10:10:23:aa:0f:d7:12:44:e8:
        c2:e3:c3:a2:f3:0c:3a:d7:12:25:bf:29:a3:ea:cd:0b:4b:21:
        c4:56:3d:5f:39:1c:b8:0f:c8:8c:05:ce:18:d1:e7:4c:a2:31:
        65:fc:29:0a:72:22:18:c3:f3:81:e6:79:af:9b:9b:70:69:21:
        ee:2d:c0:5f:00:27:a0:91:2a:70:5d:03:ac:c7:e1:d2:f0:b4:
        cd:26:23:7c:5b:d4:85:af:f9:b7:52:aa:ec:d2:a0:54:f4:91:
        f7:cc:15:5d:aa:84:26:28:d0:cd:11:46:41:23:e7:4e:b5:e3:
        32:05:09:ab:45:88:8d:d1:80:c1:c9:49:a4:f5:ab:69:f9:59:
        20:fc:13:00:ea:b8:d6:87:a1:14:cd:23:7c:96:7b:1c:8a:7a:
        15:7b:37:be:97:87:29:58:84:1f:b0:85:3e:7f:58:9e:76:a5:
        d3:58:66:58:b5:34:25:d0:7c:22:cb:81:23:b7:02:46:27:38:
        b9:a8:48:99
-----BEGIN CERTIFICATE-----
MIID2TCCAsGgAwIBAgICAKIwDQYJKoZIhvcNAQEFBQAwfDELMAkGA1UEBhMCQ04x
CzAJBgNVBAgTAkdEMQswCQYDVQQHEwJIWTEQMA4GA1UEChMHWGFtYXJpbjEOMAwG
A1UECxMFVGVjaC4xEDAOBgNVBAMTB1hhbXdhcmUxHzAdBgkqhkiG9w0BCQEWEGpl
YW5nb0BnbWFpbC5jb20wHhcNMjAwNjA1MTMwODM0WhcNMjEwNjA1MTMwODM0WjBz
MQswCQYDVQQGEwJDTjELMAkGA1UECBMCR0QxEDAOBgNVBAoTB1hhbWFyaW4xDjAM
BgNVBAsTBVRlY2guMRIwEAYDVQQDEwlsb2NhbGhvc3QxITAfBgkqhkiG9w0BCQEW
EmplYW5nb0B4YW13YXJlLmNvbTCCASIwDQYJKoZIhvcNAQEBBQADggEPADCCAQoC
ggEBAPMf53Rk4/QtNa8TFQzyXIxVyP8nYNATux9KvhHG5ZObWXHOlYBqvf8qft9U
PV1zQiCbmUezZmf/XXiIUMW5I/v9D3IOzkNxnOOHXxTA+uEPSKKh1Nj6iD4w/Cvq
pLloYPJEAHKd/v84pr1ZTxU+iPwtglWMuQFuwwqDdA98TM2cWoeRV8kIwV3zwwAz
E+88T+89q3b1lB/0QLJ1DqD7KDJrCbqCghFYZ9jTfYFl66VCtIBeOcS+wVxZuI+K
bfyVX/RMKK6skWXbSIYXK0aLmHtpxeVxBlEBLDvEAvCjjd475UnddXDYXfll2i76
0/ClxeAZltnw9V9sGcpzVWIgWLMCAwEAAaNuMGwwCQYDVR0TBAIwADALBgNVHQ8E
BAMCBeAwHQYDVR0lBBYwFAYIKwYBBQUHAwEGCCsGAQUFBwMCMDMGA1UdEQQsMCqC
CWxvY2FsaG9zdIINMTkyLjE2OC4wLjExMoIOMTkyLjE2OC40My4yMDMwDQYJKoZI
hvcNAQEFBQADggEBAKwLp71x3WNyF2iO+w7TvF1JdLZ/yvturi3cRGJ1mRGHusIg
eyxdsaTvNX7dGWORdQP4EiPc06CwIDDBVMf9BhAQI6oP1xJE6MLjw6LzDDrXEiW/
KaPqzQtLIcRWPV85HLgPyIwFzhjR50yiMWX8KQpyIhjD84Hmea+bm3BpIe4twF8A
J6CRKnBdA6zH4dLwtM0mI3xb1IWv+bdSquzSoFT0kffMFV2qhCYo0M0RRkEj5061
4zIFCatFiI3RgMHJSaT1q2n5WSD8EwDquNaHoRTNI3yWexyKehV7N76XhylYhB+w
hT5/WJ52pdNYZli1NCXQfCLLgSO3AkYnOLmoSJk=
-----END CERTIFICATE-----
