Certificate:
    Data:
        Version: 3 (0x2)
        Serial Number: 0 (0x0)
        Signature Algorithm: sha1WithRSAEncryption
        Issuer: C=CN, ST=GD, L=HY, O=Xamarin, OU=Tech., CN=Xamware/emailAddress=jeango@gmail.com
        Validity
            Not Before: Jun  5 12:32:28 2020 GMT
            Not After : Jun  5 12:32:28 2021 GMT
        Subject: C=CN, ST=GD, O=Xamarin, OU=Tech., CN=localhost/emailAddress=jeango@xamware.com
        Subject Public Key Info:
            Public Key Algorithm: rsaEncryption
            RSA Public Key: (2048 bit)
                Modulus (2048 bit):
                    00:f3:1f:e7:74:64:e3:f4:2d:35:af:13:15:0c:f2:
                    5c:8c:55:c8:ff:27:60:d0:13:bb:1f:4a:be:11:c6:
                    e5:93:9b:59:71:ce:95:80:6a:bd:ff:2a:7e:df:54:
                    3d:5d:73:42:20:9b:99:47:b3:66:67:ff:5d:78:88:
                    50:c5:b9:23:fb:fd:0f:72:0e:ce:43:71:9c:e3:87:
                    5f:14:c0:fa:e1:0f:48:a2:a1:d4:d8:fa:88:3e:30:
                    fc:2b:ea:a4:b9:68:60:f2:44:00:72:9d:fe:ff:38:
                    a6:bd:59:4f:15:3e:88:fc:2d:82:55:8c:b9:01:6e:
                    c3:0a:83:74:0f:7c:4c:cd:9c:5a:87:91:57:c9:08:
                    c1:5d:f3:c3:00:33:13:ef:3c:4f:ef:3d:ab:76:f5:
                    94:1f:f4:40:b2:75:0e:a0:fb:28:32:6b:09:ba:82:
                    82:11:58:67:d8:d3:7d:81:65:eb:a5:42:b4:80:5e:
                    39:c4:be:c1:5c:59:b8:8f:8a:6d:fc:95:5f:f4:4c:
                    28:ae:ac:91:65:db:48:86:17:2b:46:8b:98:7b:69:
                    c5:e5:71:06:51:01:2c:3b:c4:02:f0:a3:8d:de:3b:
                    e5:49:dd:75:70:d8:5d:f9:65:da:2e:fa:d3:f0:a5:
                    c5:e0:19:96:d9:f0:f5:5f:6c:19:ca:73:55:62:20:
                    58:b3
                Exponent: 65537 (0x10001)
        X509v3 extensions:
            X509v3 Basic Constraints: 
                CA:FALSE
            X509v3 Key Usage: 
                Digital Signature, Non Repudiation, Key Encipherment
            X509v3 Subject Alternative Name: 
                DNS:localhost, DNS:192.168.0.112, DNS:192.168.43.203
    Signature Algorithm: sha1WithRSAEncryption
        50:a6:b9:99:a8:a4:31:30:55:86:c5:11:83:b4:9a:41:cb:ec:
        5f:21:ac:08:96:e8:a3:7a:3d:f1:5f:39:7f:cf:f3:27:de:3c:
        06:3f:bb:c5:9a:e3:2f:4c:25:02:0e:5e:bf:62:b1:54:ba:e7:
        b6:15:a0:49:8b:b5:9f:c2:61:e7:4f:83:5c:c3:5a:89:70:32:
        47:b3:ac:89:aa:a7:de:36:43:64:2c:1e:e3:9e:68:a0:9e:b5:
        b9:e0:69:ec:07:3e:b3:b3:81:ca:07:89:78:2f:c8:9b:ac:60:
        37:b5:02:7e:6d:47:91:87:77:4e:a4:96:21:c0:4c:9b:f8:38:
        d2:d6:26:fe:fc:25:28:27:f7:bd:41:49:14:55:22:7c:66:76:
        d9:b7:10:a6:e5:0b:53:3f:79:aa:38:aa:c7:f4:97:53:f1:6f:
        cc:fe:d9:66:54:9e:43:2e:d8:68:1e:ce:26:cd:e7:16:e4:fe:
        e9:55:b4:da:52:b1:fe:8d:2c:31:eb:70:3b:9b:1d:bd:78:d2:
        3c:99:80:0c:e0:1f:d9:cd:44:87:63:f6:fb:22:1e:2b:d3:e2:
        d2:b3:cc:41:ba:cf:61:0d:f6:e5:a7:7a:08:93:c9:09:7f:b9:
        6b:21:c4:73:fd:62:ae:a7:f2:02:fd:ed:be:f4:3b:78:67:c0:
        12:3d:6d:2c
-----BEGIN CERTIFICATE-----
MIIDuTCCAqGgAwIBAgIBADANBgkqhkiG9w0BAQUFADB8MQswCQYDVQQGEwJDTjEL
MAkGA1UECBMCR0QxCzAJBgNVBAcTAkhZMRAwDgYDVQQKEwdYYW1hcmluMQ4wDAYD
VQQLEwVUZWNoLjEQMA4GA1UEAxMHWGFtd2FyZTEfMB0GCSqGSIb3DQEJARYQamVh
bmdvQGdtYWlsLmNvbTAeFw0yMDA2MDUxMjMyMjhaFw0yMTA2MDUxMjMyMjhaMHMx
CzAJBgNVBAYTAkNOMQswCQYDVQQIEwJHRDEQMA4GA1UEChMHWGFtYXJpbjEOMAwG
A1UECxMFVGVjaC4xEjAQBgNVBAMTCWxvY2FsaG9zdDEhMB8GCSqGSIb3DQEJARYS
amVhbmdvQHhhbXdhcmUuY29tMIIBIjANBgkqhkiG9w0BAQEFAAOCAQ8AMIIBCgKC
AQEA8x/ndGTj9C01rxMVDPJcjFXI/ydg0BO7H0q+Ecblk5tZcc6VgGq9/yp+31Q9
XXNCIJuZR7NmZ/9deIhQxbkj+/0Pcg7OQ3Gc44dfFMD64Q9IoqHU2PqIPjD8K+qk
uWhg8kQAcp3+/zimvVlPFT6I/C2CVYy5AW7DCoN0D3xMzZxah5FXyQjBXfPDADMT
7zxP7z2rdvWUH/RAsnUOoPsoMmsJuoKCEVhn2NN9gWXrpUK0gF45xL7BXFm4j4pt
/JVf9EworqyRZdtIhhcrRouYe2nF5XEGUQEsO8QC8KON3jvlSd11cNhd+WXaLvrT
8KXF4BmW2fD1X2wZynNVYiBYswIDAQABo08wTTAJBgNVHRMEAjAAMAsGA1UdDwQE
AwIF4DAzBgNVHREELDAqgglsb2NhbGhvc3SCDTE5Mi4xNjguMC4xMTKCDjE5Mi4x
NjguNDMuMjAzMA0GCSqGSIb3DQEBBQUAA4IBAQBQprmZqKQxMFWGxRGDtJpBy+xf
IawIluijej3xXzl/z/Mn3jwGP7vFmuMvTCUCDl6/YrFUuue2FaBJi7WfwmHnT4Nc
w1qJcDJHs6yJqqfeNkNkLB7jnmignrW54GnsBz6zs4HKB4l4L8ibrGA3tQJ+bUeR
h3dOpJYhwEyb+DjS1ib+/CUoJ/e9QUkUVSJ8ZnbZtxCm5QtTP3mqOKrH9JdT8W/M
/tlmVJ5DLthoHs4mzecW5P7pVbTaUrH+jSwx63A7mx29eNI8mYAM4B/ZzUSHY/b7
Ih4r0+LSs8xBus9hDfblp3oIk8kJf7lrIcRz/WKup/IC/e2+9Dt4Z8ASPW0s
-----END CERTIFICATE-----
