Certificate:
    Data:
        Version: 3 (0x2)
        Serial Number: 161 (0xa1)
        Signature Algorithm: sha1WithRSAEncryption
        Issuer: C=CN, ST=GD, L=HY, O=Xamarin, OU=Tech., CN=Xamware/emailAddress=jeango@gmail.com
        Validity
            Not Before: Jun  5 12:33:53 2020 GMT
            Not After : Jun  5 12:33:53 2021 GMT
        Subject: C=CN, ST=GD, O=Xamarin, OU=Tech., CN=localhost/emailAddress=jeango@xamware.com
        Subject Public Key Info:
            Public Key Algorithm: rsaEncryption
            RSA Public Key: (2048 bit)
                Modulus (2048 bit):
                    00:f3:1f:e7:74:64:e3:f4:2d:35:af:13:15:0c:f2:
                    5c:8c:55:c8:ff:27:60:d0:13:bb:1f:4a:be:11:c6:
                    e5:93:9b:59:71:ce:95:80:6a:bd:ff:2a:7e:df:54:
                    3d:5d:73:42:20:9b:99:47:b3:66:67:ff:5d:78:88:
                    50:c5:b9:23:fb:fd:0f:72:0e:ce:43:71:9c:e3:87:
                    5f:14:c0:fa:e1:0f:48:a2:a1:d4:d8:fa:88:3e:30:
                    fc:2b:ea:a4:b9:68:60:f2:44:00:72:9d:fe:ff:38:
                    a6:bd:59:4f:15:3e:88:fc:2d:82:55:8c:b9:01:6e:
                    c3:0a:83:74:0f:7c:4c:cd:9c:5a:87:91:57:c9:08:
                    c1:5d:f3:c3:00:33:13:ef:3c:4f:ef:3d:ab:76:f5:
                    94:1f:f4:40:b2:75:0e:a0:fb:28:32:6b:09:ba:82:
                    82:11:58:67:d8:d3:7d:81:65:eb:a5:42:b4:80:5e:
                    39:c4:be:c1:5c:59:b8:8f:8a:6d:fc:95:5f:f4:4c:
                    28:ae:ac:91:65:db:48:86:17:2b:46:8b:98:7b:69:
                    c5:e5:71:06:51:01:2c:3b:c4:02:f0:a3:8d:de:3b:
                    e5:49:dd:75:70:d8:5d:f9:65:da:2e:fa:d3:f0:a5:
                    c5:e0:19:96:d9:f0:f5:5f:6c:19:ca:73:55:62:20:
                    58:b3
                Exponent: 65537 (0x10001)
        X509v3 extensions:
            X509v3 Basic Constraints: 
                CA:FALSE
            X509v3 Key Usage: 
                Digital Signature, Non Repudiation, Key Encipherment
            X509v3 Subject Alternative Name: 
                DNS:localhost, DNS:192.168.0.112, DNS:192.168.43.203
    Signature Algorithm: sha1WithRSAEncryption
        1f:6d:cd:11:04:0e:d4:cd:2d:d9:8b:d1:6d:e2:53:86:45:2a:
        fe:42:02:f1:fc:5f:a1:51:86:32:84:be:b7:2d:e9:df:33:a2:
        d4:95:01:27:9b:07:52:ec:cc:65:11:55:47:85:af:84:33:46:
        52:6e:36:2f:4f:05:1b:a9:de:ea:69:e3:47:a1:96:5a:61:8c:
        74:64:1e:c6:17:ce:36:af:97:58:a7:65:01:33:4e:5d:e4:c3:
        f1:63:a5:58:e9:b7:b3:3f:86:50:73:f3:93:28:40:90:1c:01:
        db:6a:5b:ca:19:48:78:68:01:df:b7:bd:5c:55:d0:d9:29:2f:
        2c:0a:40:3f:d7:57:b6:a9:f1:fb:ec:72:54:38:b8:46:34:67:
        a9:47:b2:1b:07:be:3c:1b:44:f7:f2:c5:f8:b6:56:b6:bb:74:
        fb:49:f2:a7:7d:15:8e:20:25:9c:5d:1b:59:16:d3:6c:1b:1a:
        30:56:51:01:d1:c8:be:50:2c:77:2e:48:20:39:92:ac:db:ab:
        12:2a:e3:d0:30:d4:16:58:d2:26:a4:29:42:12:88:e7:04:0c:
        50:e3:7f:d7:3b:21:32:11:9d:cb:79:c3:f8:b9:3b:40:9a:12:
        da:b5:70:19:50:77:26:ae:30:66:c6:e7:e1:fa:2c:39:07:89:
        b3:84:f4:7a
-----BEGIN CERTIFICATE-----
MIIDujCCAqKgAwIBAgICAKEwDQYJKoZIhvcNAQEFBQAwfDELMAkGA1UEBhMCQ04x
CzAJBgNVBAgTAkdEMQswCQYDVQQHEwJIWTEQMA4GA1UEChMHWGFtYXJpbjEOMAwG
A1UECxMFVGVjaC4xEDAOBgNVBAMTB1hhbXdhcmUxHzAdBgkqhkiG9w0BCQEWEGpl
YW5nb0BnbWFpbC5jb20wHhcNMjAwNjA1MTIzMzUzWhcNMjEwNjA1MTIzMzUzWjBz
MQswCQYDVQQGEwJDTjELMAkGA1UECBMCR0QxEDAOBgNVBAoTB1hhbWFyaW4xDjAM
BgNVBAsTBVRlY2guMRIwEAYDVQQDEwlsb2NhbGhvc3QxITAfBgkqhkiG9w0BCQEW
EmplYW5nb0B4YW13YXJlLmNvbTCCASIwDQYJKoZIhvcNAQEBBQADggEPADCCAQoC
ggEBAPMf53Rk4/QtNa8TFQzyXIxVyP8nYNATux9KvhHG5ZObWXHOlYBqvf8qft9U
PV1zQiCbmUezZmf/XXiIUMW5I/v9D3IOzkNxnOOHXxTA+uEPSKKh1Nj6iD4w/Cvq
pLloYPJEAHKd/v84pr1ZTxU+iPwtglWMuQFuwwqDdA98TM2cWoeRV8kIwV3zwwAz
E+88T+89q3b1lB/0QLJ1DqD7KDJrCbqCghFYZ9jTfYFl66VCtIBeOcS+wVxZuI+K
bfyVX/RMKK6skWXbSIYXK0aLmHtpxeVxBlEBLDvEAvCjjd475UnddXDYXfll2i76
0/ClxeAZltnw9V9sGcpzVWIgWLMCAwEAAaNPME0wCQYDVR0TBAIwADALBgNVHQ8E
BAMCBeAwMwYDVR0RBCwwKoIJbG9jYWxob3N0gg0xOTIuMTY4LjAuMTEygg4xOTIu
MTY4LjQzLjIwMzANBgkqhkiG9w0BAQUFAAOCAQEAH23NEQQO1M0t2YvRbeJThkUq
/kIC8fxfoVGGMoS+ty3p3zOi1JUBJ5sHUuzMZRFVR4WvhDNGUm42L08FG6ne6mnj
R6GWWmGMdGQexhfONq+XWKdlATNOXeTD8WOlWOm3sz+GUHPzkyhAkBwB22pbyhlI
eGgB37e9XFXQ2SkvLApAP9dXtqnx++xyVDi4RjRnqUeyGwe+PBtE9/LF+LZWtrt0
+0nyp30VjiAlnF0bWRbTbBsaMFZRAdHIvlAsdy5IIDmSrNurEirj0DDUFljSJqQp
QhKI5wQMUON/1zshMhGdy3nD+Lk7QJoS2rVwGVB3Jq4wZsbn4fosOQeJs4T0eg==
-----END CERTIFICATE-----
